target datalayout = "e-m:e-p270:32:32-p271:32:32-p272:64:64-i64:64-i128:128-f80:128-n8:16:32:64-S128"
target triple = "x86_64-pc-linux-gnu"

%struct.URLContext = type { ptr, ptr, ptr, ptr, i32, i32, i32, i32, %struct.AVIOInterruptCB, i64, ptr, ptr, i32 }
%struct.AVIOInterruptCB = type { ptr, ptr }
%struct.FTPContext = type { ptr, ptr, ptr, [1024 x i8], ptr, ptr, i32, i32, ptr, ptr, ptr, ptr, i64, i64, i32, ptr, i32, i32, i32, ptr, ptr, i64, i64, i32, ptr, ptr }

; Function Attrs: nounwind uwtable
define internal i32 @ftp_close_dir(ptr noundef %0) #0 {
  %2 = alloca ptr, align 8
  %3 = alloca ptr, align 8
  store ptr %0, ptr %2, align 8, !tbaa !4
  call void @llvm.lifetime.start.p0(i64 8, ptr %3) #9
  %4 = load ptr, ptr %2, align 8, !tbaa !4
  %5 = getelementptr inbounds nuw %struct.URLContext, ptr %4, i32 0, i32 2
  %6 = load ptr, ptr %5, align 8, !tbaa !13
  store ptr %6, ptr %3, align 8, !tbaa !19
  %7 = load ptr, ptr %3, align 8, !tbaa !19
  %8 = getelementptr inbounds nuw %struct.FTPContext, ptr %7, i32 0, i32 20
  call void @av_freep(ptr noundef %8)
  %9 = load ptr, ptr %3, align 8, !tbaa !19
  %10 = getelementptr inbounds nuw %struct.FTPContext, ptr %9, i32 0, i32 1
  %11 = call i32 @ffurl_closep(ptr noundef %10)
  %12 = load ptr, ptr %3, align 8, !tbaa !19
  %13 = getelementptr inbounds nuw %struct.FTPContext, ptr %12, i32 0, i32 2
  %14 = call i32 @ffurl_closep(ptr noundef %13)
  call void @llvm.lifetime.end.p0(i64 8, ptr %3) #9
  ret i32 0
}