; Function Attrs: nounwind uwtable
define internal noundef i32 @ftp_close_dir(ptr noundef readonly captures(none) %0) #0 {
  %2 = getelementptr inbounds nuw i8, ptr %0, i64 16
  %3 = load ptr, ptr %2, align 8, !tbaa !4
  %4 = getelementptr inbounds nuw i8, ptr %3, i64 1160
  tail call void @av_freep(ptr noundef nonnull %4) #10
  %5 = getelementptr inbounds nuw i8, ptr %3, i64 8
  %6 = tail call i32 @ffurl_closep(ptr noundef nonnull %5) #10
  %7 = getelementptr inbounds nuw i8, ptr %3, i64 16
  %8 = tail call i32 @ffurl_closep(ptr noundef nonnull %7) #10
  ret i32 0
}